; Function Attrs: mustprogress nofree norecurse nosync nounwind willreturn memory(argmem: read) uwtable
define hidden noundef range(i32 0, 256) i32 @_ZN6google8protobuf23UTF8FirstLetterNumBytesEPKci(ptr noundef readonly captures(none) %0, i32 noundef %1) local_unnamed_addr #22 {
  %3 = icmp eq i32 %1, 0
  br i1 %3, label %10, label %4

4:                                                ; preds = %2
  %5 = load i8, ptr %0, align 1, !tbaa !11
  %6 = zext i8 %5 to i64
  %7 = getelementptr inbounds nuw [256 x i8], ptr @_ZN6google8protobufL11kUTF8LenTblE, i64 0, i64 %6
  %8 = load i8, ptr %7, align 1, !tbaa !11
  %9 = zext i8 %8 to i32
  br label %10

10:                                               ; preds = %2, %4
  %.0 = phi i32 [ %9, %4 ], [ 0, %2 ]
  ret i32 %.0
}